; Function Attrs: mustprogress uwtable
define noundef i32 @_Z34tsi_construct_string_peer_propertyPKcS0_mP17tsi_peer_property(ptr noundef %0, ptr noundef readonly captures(none) %1, i64 noundef %2, ptr noundef writeonly captures(none) initializes((0, 24)) %3) local_unnamed_addr #4 {
  tail call void @llvm.memset.p0.i64(ptr noundef nonnull align 8 dereferenceable(24) %3, i8 0, i64 24, i1 false)
  %.not.i = icmp eq ptr %0, null
  br i1 %.not.i, label %7, label %5

5:                                                ; preds = %4
  %6 = tail call ptr @gpr_strdup(ptr noundef nonnull %0)
  store ptr %6, ptr %3, align 8, !tbaa !46
  br label %7

7:                                                ; preds = %5, %4
  %.not9.i = icmp eq i64 %2, 0
  br i1 %.not9.i, label %_Z44tsi_construct_allocated_string_peer_propertyPKcmP17tsi_peer_property.exit.thread, label %8

8:                                                ; preds = %7
  %9 = tail call ptr @gpr_zalloc(i64 noundef %2)
  %10 = getelementptr inbounds nuw i8, ptr %3, i64 8
  store ptr %9, ptr %10, align 8, !tbaa !49
  %11 = getelementptr inbounds nuw i8, ptr %3, i64 16
  store i64 %2, ptr %11, align 8, !tbaa !56
  tail call void @llvm.memcpy.p0.p0.i64(ptr align 1 %9, ptr align 1 %1, i64 %2, i1 false)
  br label %_Z44tsi_construct_allocated_string_peer_propertyPKcmP17tsi_peer_property.exit.thread

_Z44tsi_construct_allocated_string_peer_propertyPKcmP17tsi_peer_property.exit.thread: ; preds = %7, %8
  ret i32 0
}